; Function Attrs: nounwind uwtable
define ptr @l___private_Lean_Meta_Tactic_Grind_Intro_0__Lean_Meta_Grind_applyCases_x3f(ptr noundef %0, ptr noundef %1, ptr noundef %2, ptr noundef %3, ptr noundef %4, ptr noundef %5, ptr noundef %6, ptr noundef %7, ptr noundef %8, ptr noundef %9) local_unnamed_addr #0 {
  %11 = getelementptr inbounds nuw i8, ptr %0, i64 8
  %12 = load ptr, ptr %11, align 8, !tbaa !10
  %13 = ptrtoint ptr %12 to i64
  %14 = and i64 %13, 1
  %.not = icmp eq i64 %14, 0
  br i1 %.not, label %15, label %lean_inc.exit28

15:                                               ; preds = %10
  %.val.i = load i32, ptr %12, align 4, !tbaa !4
  %16 = icmp sgt i32 %.val.i, 0
  br i1 %16, label %17, label %19, !prof !9

17:                                               ; preds = %15
  %18 = add nuw i32 %.val.i, 1
  store i32 %18, ptr %12, align 4, !tbaa !4
  br label %lean_inc.exit28

19:                                               ; preds = %15
  %.not.i = icmp eq i32 %.val.i, 0
  br i1 %.not.i, label %lean_inc.exit28, label %20

20:                                               ; preds = %19
  tail call void @lean_inc_ref_cold(ptr noundef nonnull %12) #6
  br label %lean_inc.exit28

lean_inc.exit28:                                  ; preds = %20, %19, %17, %10
  %21 = ptrtoint ptr %1 to i64
  %22 = and i64 %21, 1
  %.not37 = icmp eq i64 %22, 0
  br i1 %.not37, label %23, label %lean_inc.exit27

23:                                               ; preds = %lean_inc.exit28
  %.val.i29 = load i32, ptr %1, align 4, !tbaa !4
  %24 = icmp sgt i32 %.val.i29, 0
  br i1 %24, label %25, label %27, !prof !9

25:                                               ; preds = %23
  %26 = add nuw i32 %.val.i29, 1
  store i32 %26, ptr %1, align 4, !tbaa !4
  br label %lean_inc.exit27

27:                                               ; preds = %23
  %.not.i30 = icmp eq i32 %.val.i29, 0
  br i1 %.not.i30, label %lean_inc.exit27, label %28

28:                                               ; preds = %27
  tail call void @lean_inc_ref_cold(ptr noundef nonnull %1) #6
  br label %lean_inc.exit27

lean_inc.exit27:                                  ; preds = %28, %27, %25, %lean_inc.exit28
  tail call void @lean_inc_heartbeat() #6
  %29 = tail call noalias ptr @mi_malloc_small(i64 noundef 32) #6
  %30 = icmp eq ptr %29, null
  br i1 %30, label %31, label %lean_alloc_closure.exit

31:                                               ; preds = %lean_inc.exit27
  tail call void @lean_internal_panic_out_of_memory() #7
  unreachable

lean_alloc_closure.exit:                          ; preds = %lean_inc.exit27
  %32 = getelementptr inbounds nuw i8, ptr %29, i64 4
  store i32 1, ptr %29, align 4, !tbaa !4
  store i32 -184549344, ptr %32, align 4
  %33 = getelementptr inbounds nuw i8, ptr %29, i64 8
  store ptr @l___private_Lean_Meta_Tactic_Grind_Intro_0__Lean_Meta_Grind_applyCases_x3f___lambda__1___boxed, ptr %33, align 8, !tbaa !10
  %34 = getelementptr inbounds nuw i8, ptr %29, i64 16
  store i16 9, ptr %34, align 8, !tbaa !16
  %35 = getelementptr inbounds nuw i8, ptr %29, i64 18
  store i16 1, ptr %35, align 2, !tbaa !16
  %36 = getelementptr inbounds nuw i8, ptr %29, i64 24
  store ptr %1, ptr %36, align 8, !tbaa !10
  br i1 %.not, label %37, label %lean_inc.exit

37:                                               ; preds = %lean_alloc_closure.exit
  %.val.i32 = load i32, ptr %12, align 4, !tbaa !4
  %38 = icmp sgt i32 %.val.i32, 0
  br i1 %38, label %39, label %41, !prof !9

39:                                               ; preds = %37
  %40 = add nuw i32 %.val.i32, 1
  store i32 %40, ptr %12, align 4, !tbaa !4
  br label %lean_inc.exit

41:                                               ; preds = %37
  %.not.i33 = icmp eq i32 %.val.i32, 0
  br i1 %.not.i33, label %lean_inc.exit, label %42

42:                                               ; preds = %41
  tail call void @lean_inc_ref_cold(ptr noundef nonnull %12) #6
  br label %lean_inc.exit

lean_inc.exit:                                    ; preds = %42, %41, %39, %lean_alloc_closure.exit
  tail call void @lean_inc_heartbeat() #6
  %43 = tail call noalias ptr @mi_malloc_small(i64 noundef 48) #6
  %44 = icmp eq ptr %43, null
  br i1 %44, label %45, label %lean_alloc_closure.exit35

45:                                               ; preds = %lean_inc.exit
  tail call void @lean_internal_panic_out_of_memory() #7
  unreachable

lean_alloc_closure.exit35:                        ; preds = %lean_inc.exit
  %46 = getelementptr inbounds nuw i8, ptr %43, i64 4
  store i32 1, ptr %43, align 4, !tbaa !4
  store i32 -184549328, ptr %46, align 4
  %47 = getelementptr inbounds nuw i8, ptr %43, i64 8
  store ptr @l___private_Lean_Meta_Tactic_Grind_Intro_0__Lean_Meta_Grind_applyCases_x3f___lambda__4___boxed, ptr %47, align 8, !tbaa !10
  %48 = getelementptr inbounds nuw i8, ptr %43, i64 16
  store i16 12, ptr %48, align 8, !tbaa !16
  %49 = getelementptr inbounds nuw i8, ptr %43, i64 18
  store i16 3, ptr %49, align 2, !tbaa !16
  %50 = getelementptr inbounds nuw i8, ptr %43, i64 24
  store ptr %0, ptr %50, align 8, !tbaa !10
  %51 = getelementptr inbounds nuw i8, ptr %43, i64 32
  store ptr %1, ptr %51, align 8, !tbaa !10
  %52 = getelementptr inbounds nuw i8, ptr %43, i64 40
  store ptr %12, ptr %52, align 8, !tbaa !10
  tail call void @lean_inc_heartbeat() #6
  %53 = tail call noalias ptr @mi_malloc_small(i64 noundef 40) #6
  %54 = icmp eq ptr %53, null
  br i1 %54, label %55, label %lean_alloc_closure.exit36

55:                                               ; preds = %lean_alloc_closure.exit35
  tail call void @lean_internal_panic_out_of_memory() #7
  unreachable

lean_alloc_closure.exit36:                        ; preds = %lean_alloc_closure.exit35
  %56 = getelementptr inbounds nuw i8, ptr %53, i64 4
  store i32 1, ptr %53, align 4, !tbaa !4
  store i32 -184549336, ptr %56, align 4
  %57 = getelementptr inbounds nuw i8, ptr %53, i64 8
  store ptr @l_ReaderT_bind___at_Lean_Meta_Grind_GoalM_run___spec__1___rarg, ptr %57, align 8, !tbaa !10
  %58 = getelementptr inbounds nuw i8, ptr %53, i64 16
  store i16 10, ptr %58, align 8, !tbaa !16
  %59 = getelementptr inbounds nuw i8, ptr %53, i64 18
  store i16 2, ptr %59, align 2, !tbaa !16
  %60 = getelementptr inbounds nuw i8, ptr %53, i64 24
  store ptr %29, ptr %60, align 8, !tbaa !10
  %61 = getelementptr inbounds nuw i8, ptr %53, i64 32
  store ptr %43, ptr %61, align 8, !tbaa !10
  %62 = tail call ptr @l_Lean_MVarId_withContext___at_Lean_Meta_Grind_GoalM_run___spec__2___rarg(ptr noundef %12, ptr noundef nonnull %53, ptr noundef %2, ptr noundef %3, ptr noundef %4, ptr noundef %5, ptr noundef %6, ptr noundef %7, ptr noundef %8, ptr noundef %9) #6
  ret ptr %62
}